target datalayout = "e-m:e-p270:32:32-p271:32:32-p272:64:64-i64:64-i128:128-f80:128-n8:16:32:64-S128"
target triple = "x86_64-unknown-linux-gnu"

%struct.ecc_point = type { [1 x %struct.sp_int], [1 x %struct.sp_int], [1 x %struct.sp_int] }
%struct.sp_int = type { i32, i32, [129 x i64] }

; Function Attrs: nounwind uwtable
define i32 @wc_ecc_copy_point(ptr noundef %p, ptr noundef %r) #0 {
entry:
  %retval = alloca i32, align 4
  %p.addr = alloca ptr, align 8
  %r.addr = alloca ptr, align 8
  %ret = alloca i32, align 4
  store ptr %p, ptr %p.addr, align 8
  store ptr %r, ptr %r.addr, align 8
  %0 = load ptr, ptr %p.addr, align 8
  %cmp = icmp eq ptr %0, null
  br i1 %cmp, label %if.then, label %lor.lhs.false

lor.lhs.false:                                    ; preds = %entry
  %1 = load ptr, ptr %r.addr, align 8
  %cmp1 = icmp eq ptr %1, null
  br i1 %cmp1, label %if.then, label %if.end

if.then:                                          ; preds = %lor.lhs.false, %entry
  store i32 -170, ptr %retval, align 4
  br label %return

if.end:                                           ; preds = %lor.lhs.false
  %2 = load ptr, ptr %p.addr, align 8
  %x = getelementptr inbounds %struct.ecc_point, ptr %2, i32 0, i32 0
  %arraydecay = getelementptr inbounds [1 x %struct.sp_int], ptr %x, i64 0, i64 0
  %3 = load ptr, ptr %r.addr, align 8
  %x2 = getelementptr inbounds %struct.ecc_point, ptr %3, i32 0, i32 0
  %arraydecay3 = getelementptr inbounds [1 x %struct.sp_int], ptr %x2, i64 0, i64 0
  %call = call i32 @sp_copy(ptr noundef %arraydecay, ptr noundef %arraydecay3)
  store i32 %call, ptr %ret, align 4
  %4 = load i32, ptr %ret, align 4
  %cmp4 = icmp ne i32 %4, 0
  br i1 %cmp4, label %if.then5, label %if.end6

if.then5:                                         ; preds = %if.end
  %5 = load i32, ptr %ret, align 4
  store i32 %5, ptr %retval, align 4
  br label %return

if.end6:                                          ; preds = %if.end
  %6 = load ptr, ptr %p.addr, align 8
  %y = getelementptr inbounds %struct.ecc_point, ptr %6, i32 0, i32 1
  %arraydecay7 = getelementptr inbounds [1 x %struct.sp_int], ptr %y, i64 0, i64 0
  %7 = load ptr, ptr %r.addr, align 8
  %y8 = getelementptr inbounds %struct.ecc_point, ptr %7, i32 0, i32 1
  %arraydecay9 = getelementptr inbounds [1 x %struct.sp_int], ptr %y8, i64 0, i64 0
  %call10 = call i32 @sp_copy(ptr noundef %arraydecay7, ptr noundef %arraydecay9)
  store i32 %call10, ptr %ret, align 4
  %8 = load i32, ptr %ret, align 4
  %cmp11 = icmp ne i32 %8, 0
  br i1 %cmp11, label %if.then12, label %if.end13

if.then12:                                        ; preds = %if.end6
  %9 = load i32, ptr %ret, align 4
  store i32 %9, ptr %retval, align 4
  br label %return

if.end13:                                         ; preds = %if.end6
  %10 = load ptr, ptr %p.addr, align 8
  %z = getelementptr inbounds %struct.ecc_point, ptr %10, i32 0, i32 2
  %arraydecay14 = getelementptr inbounds [1 x %struct.sp_int], ptr %z, i64 0, i64 0
  %11 = load ptr, ptr %r.addr, align 8
  %z15 = getelementptr inbounds %struct.ecc_point, ptr %11, i32 0, i32 2
  %arraydecay16 = getelementptr inbounds [1 x %struct.sp_int], ptr %z15, i64 0, i64 0
  %call17 = call i32 @sp_copy(ptr noundef %arraydecay14, ptr noundef %arraydecay16)
  store i32 %call17, ptr %ret, align 4
  %12 = load i32, ptr %ret, align 4
  %cmp18 = icmp ne i32 %12, 0
  br i1 %cmp18, label %if.then19, label %if.end20

if.then19:                                        ; preds = %if.end13
  %13 = load i32, ptr %ret, align 4
  store i32 %13, ptr %retval, align 4
  br label %return

if.end20:                                         ; preds = %if.end13
  store i32 0, ptr %retval, align 4
  br label %return

return:                                           ; preds = %if.end20, %if.then19, %if.then12, %if.then5, %if.then
  %14 = load i32, ptr %retval, align 4
  ret i32 %14
}

; Function Attrs: nounwind uwtable
define i32 @ecc_projective_dbl_point_safe(ptr noundef %P, ptr noundef %R, ptr noundef %a, ptr noundef %modulus, i64 noundef %mp) #0 {
entry:
  %P.addr = alloca ptr, align 8
  %R.addr = alloca ptr, align 8
  %a.addr = alloca ptr, align 8
  %modulus.addr = alloca ptr, align 8
  %mp.addr = alloca i64, align 8
  %err = alloca i32, align 4
  store ptr %P, ptr %P.addr, align 8
  store ptr %R, ptr %R.addr, align 8
  store ptr %a, ptr %a.addr, align 8
  store ptr %modulus, ptr %modulus.addr, align 8
  store i64 %mp, ptr %mp.addr, align 8
  %0 = load ptr, ptr %P.addr, align 8
  %x = getelementptr inbounds %struct.ecc_point, ptr %0, i32 0, i32 0
  %arraydecay = getelementptr inbounds [1 x %struct.sp_int], ptr %x, i64 0, i64 0
  %used = getelementptr inbounds %struct.sp_int, ptr %arraydecay, i32 0, i32 0
  %1 = load i32, ptr %used, align 8
  %cmp = icmp eq i32 %1, 0
  br i1 %cmp, label %land.lhs.true, label %if.else

land.lhs.true:                                    ; preds = %entry
  %2 = load ptr, ptr %P.addr, align 8
  %y = getelementptr inbounds %struct.ecc_point, ptr %2, i32 0, i32 1
  %arraydecay1 = getelementptr inbounds [1 x %struct.sp_int], ptr %y, i64 0, i64 0
  %used2 = getelementptr inbounds %struct.sp_int, ptr %arraydecay1, i32 0, i32 0
  %3 = load i32, ptr %used2, align 8
  %cmp3 = icmp eq i32 %3, 0
  br i1 %cmp3, label %if.then, label %if.else

if.then:                                          ; preds = %land.lhs.true
  %4 = load ptr, ptr %P.addr, align 8
  %5 = load ptr, ptr %R.addr, align 8
  %call = call i32 @wc_ecc_copy_point(ptr noundef %4, ptr noundef %5)
  store i32 %call, ptr %err, align 4
  br label %if.end26

if.else:                                          ; preds = %land.lhs.true, %entry
  %6 = load ptr, ptr %P.addr, align 8
  %7 = load ptr, ptr %R.addr, align 8
  %8 = load ptr, ptr %a.addr, align 8
  %9 = load ptr, ptr %modulus.addr, align 8
  %10 = load i64, ptr %mp.addr, align 8
  %call4 = call i32 @_ecc_projective_dbl_point(ptr noundef %6, ptr noundef %7, ptr noundef %8, ptr noundef %9, i64 noundef %10)
  store i32 %call4, ptr %err, align 4
  %11 = load i32, ptr %err, align 4
  %cmp5 = icmp eq i32 %11, 0
  br i1 %cmp5, label %land.lhs.true6, label %if.end25

land.lhs.true6:                                   ; preds = %if.else
  %12 = load ptr, ptr %R.addr, align 8
  %z = getelementptr inbounds %struct.ecc_point, ptr %12, i32 0, i32 2
  %arraydecay7 = getelementptr inbounds [1 x %struct.sp_int], ptr %z, i64 0, i64 0
  %used8 = getelementptr inbounds %struct.sp_int, ptr %arraydecay7, i32 0, i32 0
  %13 = load i32, ptr %used8, align 8
  %cmp9 = icmp eq i32 %13, 0
  br i1 %cmp9, label %if.then10, label %if.end25

if.then10:                                        ; preds = %land.lhs.true6
  %14 = load ptr, ptr %R.addr, align 8
  %x11 = getelementptr inbounds %struct.ecc_point, ptr %14, i32 0, i32 0
  %arraydecay12 = getelementptr inbounds [1 x %struct.sp_int], ptr %x11, i64 0, i64 0
  %call13 = call i32 @sp_set(ptr noundef %arraydecay12, i64 noundef 0)
  store i32 %call13, ptr %err, align 4
  %15 = load i32, ptr %err, align 4
  %cmp14 = icmp eq i32 %15, 0
  br i1 %cmp14, label %if.then15, label %if.end

if.then15:                                        ; preds = %if.then10
  %16 = load ptr, ptr %R.addr, align 8
  %y16 = getelementptr inbounds %struct.ecc_point, ptr %16, i32 0, i32 1
  %arraydecay17 = getelementptr inbounds [1 x %struct.sp_int], ptr %y16, i64 0, i64 0
  %call18 = call i32 @sp_set(ptr noundef %arraydecay17, i64 noundef 0)
  store i32 %call18, ptr %err, align 4
  br label %if.end

if.end:                                           ; preds = %if.then15, %if.then10
  %17 = load i32, ptr %err, align 4
  %cmp19 = icmp eq i32 %17, 0
  br i1 %cmp19, label %if.then20, label %if.end24

if.then20:                                        ; preds = %if.end
  %18 = load ptr, ptr %R.addr, align 8
  %z21 = getelementptr inbounds %struct.ecc_point, ptr %18, i32 0, i32 2
  %arraydecay22 = getelementptr inbounds [1 x %struct.sp_int], ptr %z21, i64 0, i64 0
  %call23 = call i32 @sp_set(ptr noundef %arraydecay22, i64 noundef 1)
  store i32 %call23, ptr %err, align 4
  br label %if.end24

if.end24:                                         ; preds = %if.then20, %if.end
  br label %if.end25

if.end25:                                         ; preds = %if.end24, %land.lhs.true6, %if.else
  br label %if.end26

if.end26:                                         ; preds = %if.end25, %if.then
  %19 = load i32, ptr %err, align 4
  ret i32 %19
}