; Function Attrs: nounwind uwtable
define i32 @ecc_projective_dbl_point_safe(ptr noundef %P, ptr noundef %R, ptr readnone captures(none) %a, ptr noundef %modulus, i64 noundef %mp) local_unnamed_addr #2 {
entry:
  %0 = load i32, ptr %P, align 8
  %cmp = icmp eq i32 %0, 0
  br i1 %cmp, label %land.lhs.true, label %if.else

land.lhs.true:                                    ; preds = %entry
  %y = getelementptr inbounds nuw i8, ptr %P, i64 1040
  %1 = load i32, ptr %y, align 8
  %cmp3 = icmp eq i32 %1, 0
  br i1 %cmp3, label %if.then, label %if.else

if.then:                                          ; preds = %land.lhs.true
  %cmp1.i = icmp eq ptr %R, null
  br i1 %cmp1.i, label %if.end26, label %if.end.i

if.end.i:                                         ; preds = %if.then
  %call.i = tail call i32 @sp_copy(ptr noundef nonnull %P, ptr noundef nonnull %R) #19
  %cmp4.not.i = icmp eq i32 %call.i, 0
  br i1 %cmp4.not.i, label %if.end6.i, label %if.end26

if.end6.i:                                        ; preds = %if.end.i
  %y8.i = getelementptr inbounds nuw i8, ptr %R, i64 1040
  %call10.i = tail call i32 @sp_copy(ptr noundef nonnull %y, ptr noundef nonnull %y8.i) #19
  %cmp11.not.i = icmp eq i32 %call10.i, 0
  br i1 %cmp11.not.i, label %if.end13.i, label %if.end26

if.end13.i:                                       ; preds = %if.end6.i
  %z.i = getelementptr inbounds nuw i8, ptr %P, i64 2080
  %z15.i = getelementptr inbounds nuw i8, ptr %R, i64 2080
  %call17.i = tail call i32 @sp_copy(ptr noundef nonnull %z.i, ptr noundef nonnull %z15.i) #19
  br label %if.end26

if.else:                                          ; preds = %land.lhs.true, %entry
  %call4 = tail call fastcc i32 @_ecc_projective_dbl_point(ptr noundef nonnull %P, ptr noundef %R, ptr noundef %modulus, i64 noundef %mp)
  %cmp5 = icmp eq i32 %call4, 0
  br i1 %cmp5, label %land.lhs.true6, label %if.end26

land.lhs.true6:                                   ; preds = %if.else
  %z = getelementptr inbounds nuw i8, ptr %R, i64 2080
  %2 = load i32, ptr %z, align 8
  %cmp9 = icmp eq i32 %2, 0
  br i1 %cmp9, label %if.then10, label %if.end26

if.then10:                                        ; preds = %land.lhs.true6
  %call13 = tail call i32 @sp_set(ptr noundef nonnull %R, i64 noundef 0) #19
  %cmp14 = icmp eq i32 %call13, 0
  br i1 %cmp14, label %if.end, label %if.end26

if.end:                                           ; preds = %if.then10
  %y16 = getelementptr inbounds nuw i8, ptr %R, i64 1040
  %call18 = tail call i32 @sp_set(ptr noundef nonnull %y16, i64 noundef 0) #19
  %cmp19 = icmp eq i32 %call18, 0
  br i1 %cmp19, label %if.then20, label %if.end26

if.then20:                                        ; preds = %if.end
  %call23 = tail call i32 @sp_set(ptr noundef nonnull %z, i64 noundef 1) #19
  br label %if.end26

if.end26:                                         ; preds = %if.then10, %if.end13.i, %if.end6.i, %if.end.i, %if.then, %if.else, %land.lhs.true6, %if.then20, %if.end
  %err.0 = phi i32 [ %call23, %if.then20 ], [ %call18, %if.end ], [ 0, %land.lhs.true6 ], [ %call4, %if.else ], [ -170, %if.then ], [ %call.i, %if.end.i ], [ %call10.i, %if.end6.i ], [ %call17.i, %if.end13.i ], [ %call13, %if.then10 ]
  ret i32 %err.0
}